target datalayout = "e-m:e-p270:32:32-p271:32:32-p272:64:64-i64:64-i128:128-f80:128-n8:16:32:64-S128"
target triple = "x86_64-pc-linux-gnu"

%"class.std::__cxx11::basic_string" = type { %"struct.std::__cxx11::basic_string<char>::_Alloc_hider", i64, %union.anon }
%"struct.std::__cxx11::basic_string<char>::_Alloc_hider" = type { ptr }
%union.anon = type { i64, [8 x i8] }
%"class.std::allocator.10" = type { i8 }
%"struct.faiss::Index.base" = type <{ ptr, i32, [4 x i8], i64, i8, i8, [2 x i8], i32, float }>
%"struct.faiss::Index" = type <{ ptr, i32, [4 x i8], i64, i8, i8, [2 x i8], i32, float, [4 x i8] }>
%"struct.faiss::IndexRowwiseMinMaxBase" = type <{ %"struct.faiss::Index.base", [4 x i8], ptr, i8, [7 x i8] }>

@.str.1 = private unnamed_addr constant [111 x i8] c"generated/home/dtcxzyw/WorkSpace/Projects/compilers/llvm-opt-benchmark/bench/faiss/faiss/faiss/clone_index.cpp\00", align 1
@_ZTIN5faiss14FaissExceptionE = external constant ptr
@_ZTVN5faiss5IndexE = external unnamed_addr constant { [24 x ptr] }, align 8
@_ZTIN5faiss22IndexRowwiseMinMaxBaseE = external constant ptr
@_ZTIN5faiss22IndexRowwiseMinMaxFP16E = external constant ptr
@_ZTIN5faiss18IndexRowwiseMinMaxE = external constant ptr
@.str.8 = private unnamed_addr constant [56 x i8] c"clone not supported for this type of IndexRowwiseMinMax\00", align 1
@__PRETTY_FUNCTION__._ZN5faiss24clone_IndexRowwiseMinMaxEPKNS_22IndexRowwiseMinMaxBaseE = private unnamed_addr constant [88 x i8] c"IndexRowwiseMinMaxBase *faiss::clone_IndexRowwiseMinMax(const IndexRowwiseMinMaxBase *)\00", align 1
@_ZTVN5faiss22IndexRowwiseMinMaxFP16E = external unnamed_addr constant { [25 x ptr] }, align 8
@_ZTVN5faiss22IndexRowwiseMinMaxBaseE = external unnamed_addr constant { [25 x ptr] }, align 8
@_ZTVN5faiss18IndexRowwiseMinMaxE = external unnamed_addr constant { [25 x ptr] }, align 8

; Function Attrs: mustprogress nounwind uwtable
define linkonce_odr void @_ZN5faiss5IndexC2ERKS0_(ptr noundef nonnull align 8 dereferenceable(36) %0, ptr noundef nonnull align 8 dereferenceable(36) %1) unnamed_addr #1 comdat align 2 {
  %3 = alloca ptr, align 8
  %4 = alloca ptr, align 8
  store ptr %0, ptr %3, align 8
  store ptr %1, ptr %4, align 8
  %5 = load ptr, ptr %3, align 8
  store ptr getelementptr inbounds ({ [24 x ptr] }, ptr @_ZTVN5faiss5IndexE, i32 0, i32 0, i32 2), ptr %5, align 8
  %6 = getelementptr inbounds %"struct.faiss::Index", ptr %5, i32 0, i32 1
  %7 = load ptr, ptr %4, align 8
  %8 = getelementptr inbounds %"struct.faiss::Index", ptr %7, i32 0, i32 1
  call void @llvm.memcpy.p0.p0.i64(ptr align 8 %6, ptr align 8 %8, i64 28, i1 false)
  ret void
}

; Function Attrs: mustprogress nounwind uwtable
define linkonce_odr void @_ZN5faiss22IndexRowwiseMinMaxBaseC2ERKS0_(ptr noundef nonnull align 8 dereferenceable(49) %0, ptr noundef nonnull align 8 dereferenceable(49) %1) unnamed_addr #1 comdat align 2 {
  %3 = alloca ptr, align 8
  %4 = alloca ptr, align 8
  store ptr %0, ptr %3, align 8
  store ptr %1, ptr %4, align 8
  %5 = load ptr, ptr %3, align 8
  %6 = load ptr, ptr %4, align 8
  call void @_ZN5faiss5IndexC2ERKS0_(ptr noundef nonnull align 8 dereferenceable(36) %5, ptr noundef nonnull align 8 dereferenceable(36) %6) #5
  store ptr getelementptr inbounds ({ [25 x ptr] }, ptr @_ZTVN5faiss22IndexRowwiseMinMaxBaseE, i32 0, i32 0, i32 2), ptr %5, align 8
  %7 = getelementptr inbounds %"struct.faiss::IndexRowwiseMinMaxBase", ptr %5, i32 0, i32 2
  %8 = load ptr, ptr %4, align 8
  %9 = getelementptr inbounds %"struct.faiss::IndexRowwiseMinMaxBase", ptr %8, i32 0, i32 2
  call void @llvm.memcpy.p0.p0.i64(ptr align 8 %7, ptr align 8 %9, i64 9, i1 false)
  ret void
}

; Function Attrs: mustprogress nounwind uwtable
define linkonce_odr void @_ZN5faiss18IndexRowwiseMinMaxC2ERKS0_(ptr noundef nonnull align 8 dereferenceable(49) %0, ptr noundef nonnull align 8 dereferenceable(49) %1) unnamed_addr #1 comdat align 2 {
  %3 = alloca ptr, align 8
  %4 = alloca ptr, align 8
  store ptr %0, ptr %3, align 8
  store ptr %1, ptr %4, align 8
  %5 = load ptr, ptr %3, align 8
  %6 = load ptr, ptr %4, align 8
  call void @_ZN5faiss22IndexRowwiseMinMaxBaseC2ERKS0_(ptr noundef nonnull align 8 dereferenceable(49) %5, ptr noundef nonnull align 8 dereferenceable(49) %6) #5
  store ptr getelementptr inbounds ({ [25 x ptr] }, ptr @_ZTVN5faiss18IndexRowwiseMinMaxE, i32 0, i32 0, i32 2), ptr %5, align 8
  ret void
}

; Function Attrs: mustprogress nounwind uwtable
define linkonce_odr void @_ZN5faiss22IndexRowwiseMinMaxFP16C2ERKS0_(ptr noundef nonnull align 8 dereferenceable(49) %0, ptr noundef nonnull align 8 dereferenceable(49) %1) unnamed_addr #1 comdat align 2 {
  %3 = alloca ptr, align 8
  %4 = alloca ptr, align 8
  store ptr %0, ptr %3, align 8
  store ptr %1, ptr %4, align 8
  %5 = load ptr, ptr %3, align 8
  %6 = load ptr, ptr %4, align 8
  call void @_ZN5faiss22IndexRowwiseMinMaxBaseC2ERKS0_(ptr noundef nonnull align 8 dereferenceable(49) %5, ptr noundef nonnull align 8 dereferenceable(49) %6) #5
  store ptr getelementptr inbounds ({ [25 x ptr] }, ptr @_ZTVN5faiss22IndexRowwiseMinMaxFP16E, i32 0, i32 0, i32 2), ptr %5, align 8
  ret void
}

; Function Attrs: mustprogress uwtable
define noundef ptr @_ZN5faiss24clone_IndexRowwiseMinMaxEPKNS_22IndexRowwiseMinMaxBaseE(ptr noundef %0) #0 personality ptr @__gxx_personality_v0 {
  %2 = alloca ptr, align 8
  %3 = alloca ptr, align 8
  %4 = alloca ptr, align 8
  %5 = alloca ptr, align 8
  %6 = alloca %"class.std::__cxx11::basic_string", align 8
  %7 = alloca %"class.std::allocator.10", align 1
  %8 = alloca ptr, align 8
  %9 = alloca i32, align 4
  %10 = alloca i1, align 1
  store ptr %0, ptr %3, align 8
  %11 = load ptr, ptr %3, align 8
  %12 = icmp eq ptr %11, null
  br i1 %12, label %15, label %13

13:                                               ; preds = %1
  %14 = call ptr @__dynamic_cast(ptr %11, ptr @_ZTIN5faiss22IndexRowwiseMinMaxBaseE, ptr @_ZTIN5faiss22IndexRowwiseMinMaxFP16E, i64 0) #5
  br label %16

15:                                               ; preds = %1
  br label %16

16:                                               ; preds = %15, %13
  %17 = phi ptr [ %14, %13 ], [ null, %15 ]
  store ptr %17, ptr %4, align 8
  %18 = load ptr, ptr %4, align 8
  %19 = icmp ne ptr %18, null
  br i1 %19, label %20, label %23

20:                                               ; preds = %16
  %21 = call noalias noundef nonnull ptr @_Znwm(i64 noundef 56) #16
  %22 = load ptr, ptr %4, align 8
  call void @_ZN5faiss22IndexRowwiseMinMaxFP16C2ERKS0_(ptr noundef nonnull align 8 dereferenceable(49) %21, ptr noundef nonnull align 8 dereferenceable(49) %22) #5
  store ptr %21, ptr %2, align 8
  br label %56

23:                                               ; preds = %16
  %24 = load ptr, ptr %3, align 8
  %25 = icmp eq ptr %24, null
  br i1 %25, label %28, label %26

26:                                               ; preds = %23
  %27 = call ptr @__dynamic_cast(ptr %24, ptr @_ZTIN5faiss22IndexRowwiseMinMaxBaseE, ptr @_ZTIN5faiss18IndexRowwiseMinMaxE, i64 0) #5
  br label %29

28:                                               ; preds = %23
  br label %29

29:                                               ; preds = %28, %26
  %30 = phi ptr [ %27, %26 ], [ null, %28 ]
  store ptr %30, ptr %5, align 8
  %31 = load ptr, ptr %5, align 8
  %32 = icmp ne ptr %31, null
  br i1 %32, label %33, label %36

33:                                               ; preds = %29
  %34 = call noalias noundef nonnull ptr @_Znwm(i64 noundef 56) #16
  %35 = load ptr, ptr %5, align 8
  call void @_ZN5faiss18IndexRowwiseMinMaxC2ERKS0_(ptr noundef nonnull align 8 dereferenceable(49) %34, ptr noundef nonnull align 8 dereferenceable(49) %35) #5
  store ptr %34, ptr %2, align 8
  br label %56

36:                                               ; preds = %29
  br label %37

37:                                               ; preds = %36
  store i1 true, ptr %10, align 1
  %38 = call ptr @__cxa_allocate_exception(i64 40) #5
  call void @_ZNSaIcEC1Ev(ptr noundef nonnull align 1 dereferenceable(1) %7) #5
  invoke void @_ZNSt7__cxx1112basic_stringIcSt11char_traitsIcESaIcEEC2IS3_EEPKcRKS3_(ptr noundef nonnull align 8 dereferenceable(32) %6, ptr noundef @.str.8, ptr noundef nonnull align 1 dereferenceable(1) %7)
          to label %39 unwind label %41

39:                                               ; preds = %37
  invoke void @_ZN5faiss14FaissExceptionC1ERKNSt7__cxx1112basic_stringIcSt11char_traitsIcESaIcEEEPKcSA_i(ptr noundef nonnull align 8 dereferenceable(40) %38, ptr noundef nonnull align 8 dereferenceable(32) %6, ptr noundef @__PRETTY_FUNCTION__._ZN5faiss24clone_IndexRowwiseMinMaxEPKNS_22IndexRowwiseMinMaxBaseE, ptr noundef @.str.1, i32 noundef 155)
          to label %40 unwind label %45

40:                                               ; preds = %39
  store i1 false, ptr %10, align 1
  invoke void @__cxa_throw(ptr %38, ptr @_ZTIN5faiss14FaissExceptionE, ptr @_ZN5faiss14FaissExceptionD2Ev) #18
          to label %63 unwind label %45

41:                                               ; preds = %37
  %42 = landingpad { ptr, i32 }
          cleanup
  %43 = extractvalue { ptr, i32 } %42, 0
  store ptr %43, ptr %8, align 8
  %44 = extractvalue { ptr, i32 } %42, 1
  store i32 %44, ptr %9, align 4
  br label %49

45:                                               ; preds = %40, %39
  %46 = landingpad { ptr, i32 }
          cleanup
  %47 = extractvalue { ptr, i32 } %46, 0
  store ptr %47, ptr %8, align 8
  %48 = extractvalue { ptr, i32 } %46, 1
  store i32 %48, ptr %9, align 4
  call void @_ZNSt7__cxx1112basic_stringIcSt11char_traitsIcESaIcEED1Ev(ptr noundef nonnull align 8 dereferenceable(32) %6) #5
  br label %49

49:                                               ; preds = %45, %41
  call void @_ZNSaIcED1Ev(ptr noundef nonnull align 1 dereferenceable(1) %7) #5
  %50 = load i1, ptr %10, align 1
  br i1 %50, label %51, label %52

51:                                               ; preds = %49
  call void @__cxa_free_exception(ptr %38) #5
  br label %52

52:                                               ; preds = %51, %49
  br label %58

53:                                               ; No predecessors!
  br label %54

54:                                               ; preds = %53
  br label %55

55:                                               ; preds = %54
  call void @llvm.trap()
  unreachable

56:                                               ; preds = %33, %20
  %57 = load ptr, ptr %2, align 8
  ret ptr %57

58:                                               ; preds = %52
  %59 = load ptr, ptr %8, align 8
  %60 = load i32, ptr %9, align 4
  %61 = insertvalue { ptr, i32 } poison, ptr %59, 0
  %62 = insertvalue { ptr, i32 } %61, i32 %60, 1
  resume { ptr, i32 } %62

63:                                               ; preds = %40
  unreachable
}